; Function Attrs: mustprogress nofree norecurse nosync nounwind willreturn memory(argmem: readwrite) uwtable
define range(i32 -98, 1) i32 @sp_init_copy(ptr noundef writeonly captures(address) %0, ptr noundef readonly captures(address) %1) local_unnamed_addr #3 {
  %3 = icmp eq ptr %0, null
  br i1 %3, label %sp_init.exit, label %4

4:                                                ; preds = %2
  store i16 0, ptr %0, align 8, !tbaa !3
  %5 = getelementptr inbounds nuw i8, ptr %0, i64 8
  store i64 0, ptr %5, align 8, !tbaa !8
  %6 = getelementptr inbounds nuw i8, ptr %0, i64 2
  store i16 129, ptr %6, align 2, !tbaa !10
  %7 = icmp eq ptr %1, null
  %.not.i = icmp eq ptr %1, %0
  %brmerge.i = or i1 %.not.i, %7
  %spec.store.select.mux.i = select i1 %.not.i, i32 0, i32 -98
  br i1 %brmerge.i, label %sp_init.exit, label %8

8:                                                ; preds = %4
  %9 = load i16, ptr %1, align 8, !tbaa !12
  %10 = icmp ugt i16 %9, 129
  br i1 %10, label %sp_init.exit, label %.thread.i

.thread.i:                                        ; preds = %8
  %11 = icmp eq i16 %9, 0
  br i1 %11, label %_sp_copy.exit.i, label %12

12:                                               ; preds = %.thread.i
  %13 = getelementptr inbounds nuw i8, ptr %1, i64 8
  %14 = shl nuw nsw i16 %9, 3
  %15 = zext nneg i16 %14 to i64
  tail call void @llvm.memcpy.p0.p0.i64(ptr nonnull align 8 %5, ptr nonnull readonly align 8 %13, i64 %15, i1 false)
  %.pre.i.i = load i16, ptr %1, align 8, !tbaa !12
  br label %_sp_copy.exit.i

_sp_copy.exit.i:                                  ; preds = %.thread.i, %12
  %16 = phi i16 [ %.pre.i.i, %12 ], [ 0, %.thread.i ]
  store i16 %16, ptr %0, align 8, !tbaa !12
  br label %sp_init.exit

sp_init.exit:                                     ; preds = %_sp_copy.exit.i, %8, %4, %2
  %.0 = phi i32 [ -98, %2 ], [ 0, %_sp_copy.exit.i ], [ %spec.store.select.mux.i, %4 ], [ -98, %8 ]
  ret i32 %.0
}